target datalayout = "e-m:e-p270:32:32-p271:32:32-p272:64:64-i64:64-i128:128-f80:128-n8:16:32:64-S128"
target triple = "x86_64-pc-linux-gnu"

%struct.PKCS12_st = type { ptr, ptr, ptr }
%struct.PKCS12_MAC_DATA_st = type { ptr, ptr, ptr }
%struct.pkcs7_st = type { ptr, i64, i32, i32, ptr, %union.anon, %struct.PKCS7_CTX_st }
%union.anon = type { ptr }
%struct.PKCS7_CTX_st = type { ptr, ptr }
%struct.asn1_string_st = type { i32, i32, ptr, i64 }

@.str = private unnamed_addr constant [36 x i8] c"../openssl/crypto/pkcs12/p12_mutl.c\00", align 1
@__func__.pkcs12_setup_mac = private unnamed_addr constant [17 x i8] c"pkcs12_setup_mac\00", align 1

; Function Attrs: nounwind uwtable
define internal i32 @pkcs12_setup_mac(ptr noundef %0, i32 noundef %1, ptr noundef %2, i32 noundef %3, i32 noundef %4) #0 {
  %6 = alloca i32, align 4
  %7 = alloca ptr, align 8
  %8 = alloca i32, align 4
  %9 = alloca ptr, align 8
  %10 = alloca i32, align 4
  %11 = alloca i32, align 4
  %12 = alloca ptr, align 8
  %13 = alloca i32, align 4
  store ptr %0, ptr %7, align 8, !tbaa !3
  store i32 %1, ptr %8, align 4, !tbaa !37
  store ptr %2, ptr %9, align 8, !tbaa !35
  store i32 %3, ptr %10, align 4, !tbaa !37
  store i32 %4, ptr %11, align 4, !tbaa !37
  call void @llvm.lifetime.start.p0(i64 8, ptr %12) #4
  %14 = load ptr, ptr %7, align 8, !tbaa !3
  %15 = getelementptr inbounds nuw %struct.PKCS12_st, ptr %14, i32 0, i32 1
  %16 = load ptr, ptr %15, align 8, !tbaa !8
  call void @PKCS12_MAC_DATA_free(ptr noundef %16)
  %17 = load ptr, ptr %7, align 8, !tbaa !3
  %18 = getelementptr inbounds nuw %struct.PKCS12_st, ptr %17, i32 0, i32 1
  store ptr null, ptr %18, align 8, !tbaa !8
  %19 = call ptr @PKCS12_MAC_DATA_new()
  %20 = load ptr, ptr %7, align 8, !tbaa !3
  %21 = getelementptr inbounds nuw %struct.PKCS12_st, ptr %20, i32 0, i32 1
  store ptr %19, ptr %21, align 8, !tbaa !8
  %22 = icmp eq ptr %19, null
  br i1 %22, label %23, label %24

23:                                               ; preds = %5
  store i32 0, ptr %6, align 4
  store i32 1, ptr %13, align 4
  br label %122

24:                                               ; preds = %5
  %25 = load i32, ptr %8, align 4, !tbaa !37
  %26 = icmp sgt i32 %25, 1
  br i1 %26, label %27, label %47

27:                                               ; preds = %24
  %28 = call ptr @ASN1_INTEGER_new()
  %29 = load ptr, ptr %7, align 8, !tbaa !3
  %30 = getelementptr inbounds nuw %struct.PKCS12_st, ptr %29, i32 0, i32 1
  %31 = load ptr, ptr %30, align 8, !tbaa !8
  %32 = getelementptr inbounds nuw %struct.PKCS12_MAC_DATA_st, ptr %31, i32 0, i32 2
  store ptr %28, ptr %32, align 8, !tbaa !22
  %33 = icmp eq ptr %28, null
  br i1 %33, label %34, label %35

34:                                               ; preds = %27
  call void @ERR_new()
  call void @ERR_set_debug(ptr noundef @.str, i32 noundef 398, ptr noundef @__func__.pkcs12_setup_mac)
  call void (i32, i32, ptr, ...) @ERR_set_error(i32 noundef 35, i32 noundef 524301, ptr noundef null)
  store i32 0, ptr %6, align 4
  store i32 1, ptr %13, align 4
  br label %122

35:                                               ; preds = %27
  %36 = load ptr, ptr %7, align 8, !tbaa !3
  %37 = getelementptr inbounds nuw %struct.PKCS12_st, ptr %36, i32 0, i32 1
  %38 = load ptr, ptr %37, align 8, !tbaa !8
  %39 = getelementptr inbounds nuw %struct.PKCS12_MAC_DATA_st, ptr %38, i32 0, i32 2
  %40 = load ptr, ptr %39, align 8, !tbaa !22
  %41 = load i32, ptr %8, align 4, !tbaa !37
  %42 = sext i32 %41 to i64
  %43 = call i32 @ASN1_INTEGER_set(ptr noundef %40, i64 noundef %42)
  %44 = icmp ne i32 %43, 0
  br i1 %44, label %46, label %45

45:                                               ; preds = %35
  call void @ERR_new()
  call void @ERR_set_debug(ptr noundef @.str, i32 noundef 402, ptr noundef @__func__.pkcs12_setup_mac)
  call void (i32, i32, ptr, ...) @ERR_set_error(i32 noundef 35, i32 noundef 524301, ptr noundef null)
  store i32 0, ptr %6, align 4
  store i32 1, ptr %13, align 4
  br label %122

46:                                               ; preds = %35
  br label %47

47:                                               ; preds = %46, %24
  %48 = load i32, ptr %10, align 4, !tbaa !37
  %49 = icmp eq i32 %48, 0
  br i1 %49, label %50, label %51

50:                                               ; preds = %47
  store i32 8, ptr %10, align 4, !tbaa !37
  br label %56

51:                                               ; preds = %47
  %52 = load i32, ptr %10, align 4, !tbaa !37
  %53 = icmp slt i32 %52, 0
  br i1 %53, label %54, label %55

54:                                               ; preds = %51
  store i32 0, ptr %6, align 4
  store i32 1, ptr %13, align 4
  br label %122

55:                                               ; preds = %51
  br label %56

56:                                               ; preds = %55, %50
  %57 = load i32, ptr %10, align 4, !tbaa !37
  %58 = sext i32 %57 to i64
  %59 = call noalias ptr @CRYPTO_malloc(i64 noundef %58, ptr noundef @.str, i32 noundef 410)
  %60 = load ptr, ptr %7, align 8, !tbaa !3
  %61 = getelementptr inbounds nuw %struct.PKCS12_st, ptr %60, i32 0, i32 1
  %62 = load ptr, ptr %61, align 8, !tbaa !8
  %63 = getelementptr inbounds nuw %struct.PKCS12_MAC_DATA_st, ptr %62, i32 0, i32 1
  %64 = load ptr, ptr %63, align 8, !tbaa !20
  %65 = getelementptr inbounds nuw %struct.asn1_string_st, ptr %64, i32 0, i32 2
  store ptr %59, ptr %65, align 8, !tbaa !50
  %66 = icmp eq ptr %59, null
  br i1 %66, label %67, label %68

67:                                               ; preds = %56
  store i32 0, ptr %6, align 4
  store i32 1, ptr %13, align 4
  br label %122

68:                                               ; preds = %56
  %69 = load i32, ptr %10, align 4, !tbaa !37
  %70 = load ptr, ptr %7, align 8, !tbaa !3
  %71 = getelementptr inbounds nuw %struct.PKCS12_st, ptr %70, i32 0, i32 1
  %72 = load ptr, ptr %71, align 8, !tbaa !8
  %73 = getelementptr inbounds nuw %struct.PKCS12_MAC_DATA_st, ptr %72, i32 0, i32 1
  %74 = load ptr, ptr %73, align 8, !tbaa !20
  %75 = getelementptr inbounds nuw %struct.asn1_string_st, ptr %74, i32 0, i32 0
  store i32 %69, ptr %75, align 8, !tbaa !52
  %76 = load ptr, ptr %9, align 8, !tbaa !35
  %77 = icmp eq ptr %76, null
  br i1 %77, label %78, label %98

78:                                               ; preds = %68
  %79 = load ptr, ptr %7, align 8, !tbaa !3
  %80 = getelementptr inbounds nuw %struct.PKCS12_st, ptr %79, i32 0, i32 2
  %81 = load ptr, ptr %80, align 8, !tbaa !43
  %82 = getelementptr inbounds nuw %struct.pkcs7_st, ptr %81, i32 0, i32 6
  %83 = getelementptr inbounds nuw %struct.PKCS7_CTX_st, ptr %82, i32 0, i32 0
  %84 = load ptr, ptr %83, align 8, !tbaa !53
  %85 = load ptr, ptr %7, align 8, !tbaa !3
  %86 = getelementptr inbounds nuw %struct.PKCS12_st, ptr %85, i32 0, i32 1
  %87 = load ptr, ptr %86, align 8, !tbaa !8
  %88 = getelementptr inbounds nuw %struct.PKCS12_MAC_DATA_st, ptr %87, i32 0, i32 1
  %89 = load ptr, ptr %88, align 8, !tbaa !20
  %90 = getelementptr inbounds nuw %struct.asn1_string_st, ptr %89, i32 0, i32 2
  %91 = load ptr, ptr %90, align 8, !tbaa !50
  %92 = load i32, ptr %10, align 4, !tbaa !37
  %93 = sext i32 %92 to i64
  %94 = call i32 @RAND_bytes_ex(ptr noundef %84, ptr noundef %91, i64 noundef %93, i32 noundef 0)
  %95 = icmp sle i32 %94, 0
  br i1 %95, label %96, label %97

96:                                               ; preds = %78
  store i32 0, ptr %6, align 4
  store i32 1, ptr %13, align 4
  br label %122

97:                                               ; preds = %78
  br label %109

98:                                               ; preds = %68
  %99 = load ptr, ptr %7, align 8, !tbaa !3
  %100 = getelementptr inbounds nuw %struct.PKCS12_st, ptr %99, i32 0, i32 1
  %101 = load ptr, ptr %100, align 8, !tbaa !8
  %102 = getelementptr inbounds nuw %struct.PKCS12_MAC_DATA_st, ptr %101, i32 0, i32 1
  %103 = load ptr, ptr %102, align 8, !tbaa !20
  %104 = getelementptr inbounds nuw %struct.asn1_string_st, ptr %103, i32 0, i32 2
  %105 = load ptr, ptr %104, align 8, !tbaa !50
  %106 = load ptr, ptr %9, align 8, !tbaa !35
  %107 = load i32, ptr %10, align 4, !tbaa !37
  %108 = sext i32 %107 to i64
  call void @llvm.memcpy.p0.p0.i64(ptr align 1 %105, ptr align 1 %106, i64 %108, i1 false)
  br label %109

109:                                              ; preds = %98, %97
  %110 = load ptr, ptr %7, align 8, !tbaa !3
  %111 = getelementptr inbounds nuw %struct.PKCS12_st, ptr %110, i32 0, i32 1
  %112 = load ptr, ptr %111, align 8, !tbaa !8
  %113 = getelementptr inbounds nuw %struct.PKCS12_MAC_DATA_st, ptr %112, i32 0, i32 0
  %114 = load ptr, ptr %113, align 8, !tbaa !17
  call void @X509_SIG_getm(ptr noundef %114, ptr noundef %12, ptr noundef null)
  %115 = load ptr, ptr %12, align 8, !tbaa !23
  %116 = load i32, ptr %11, align 4, !tbaa !37
  %117 = call ptr @OBJ_nid2obj(i32 noundef %116)
  %118 = call i32 @X509_ALGOR_set0(ptr noundef %115, ptr noundef %117, i32 noundef 5, ptr noundef null)
  %119 = icmp ne i32 %118, 0
  br i1 %119, label %121, label %120

120:                                              ; preds = %109
  call void @ERR_new()
  call void @ERR_set_debug(ptr noundef @.str, i32 noundef 422, ptr noundef @__func__.pkcs12_setup_mac)
  call void (i32, i32, ptr, ...) @ERR_set_error(i32 noundef 35, i32 noundef 524301, ptr noundef null)
  store i32 0, ptr %6, align 4
  store i32 1, ptr %13, align 4
  br label %122

121:                                              ; preds = %109
  store i32 1, ptr %6, align 4
  store i32 1, ptr %13, align 4
  br label %122

122:                                              ; preds = %121, %120, %96, %67, %54, %45, %34, %23
  call void @llvm.lifetime.end.p0(i64 8, ptr %12) #4
  %123 = load i32, ptr %6, align 4
  ret i32 %123
}