; Function Attrs: nounwind uwtable
define internal fastcc range(i32 0, 2) i32 @pkcs12_setup_mac(ptr noundef captures(none) %0, i32 noundef %1, ptr noundef readonly captures(address_is_null) %2, i32 noundef %3, i32 noundef %4) unnamed_addr #1 {
  %6 = alloca ptr, align 8
  call void @llvm.lifetime.start.p0(i64 8, ptr nonnull %6) #5
  %7 = getelementptr inbounds nuw i8, ptr %0, i64 8
  %8 = load ptr, ptr %7, align 8, !tbaa !3
  tail call void @PKCS12_MAC_DATA_free(ptr noundef %8) #5
  store ptr null, ptr %7, align 8, !tbaa !3
  %9 = tail call ptr @PKCS12_MAC_DATA_new() #5
  store ptr %9, ptr %7, align 8, !tbaa !3
  %10 = icmp eq ptr %9, null
  br i1 %10, label %52, label %11

11:                                               ; preds = %5
  %12 = icmp sgt i32 %1, 1
  br i1 %12, label %13, label %23

13:                                               ; preds = %11
  %14 = tail call ptr @ASN1_INTEGER_new() #5
  %15 = load ptr, ptr %7, align 8, !tbaa !3
  %16 = getelementptr inbounds nuw i8, ptr %15, i64 16
  store ptr %14, ptr %16, align 8, !tbaa !16
  %17 = icmp eq ptr %14, null
  br i1 %17, label %18, label %19

18:                                               ; preds = %13
  tail call void @ERR_new() #5
  tail call void @ERR_set_debug(ptr noundef nonnull @.str, i32 noundef 398, ptr noundef nonnull @__func__.pkcs12_setup_mac) #5
  tail call void (i32, i32, ptr, ...) @ERR_set_error(i32 noundef 35, i32 noundef 524301, ptr noundef null) #5
  br label %52

19:                                               ; preds = %13
  %20 = zext nneg i32 %1 to i64
  %21 = tail call i32 @ASN1_INTEGER_set(ptr noundef nonnull %14, i64 noundef %20) #5
  %.not = icmp eq i32 %21, 0
  br i1 %.not, label %22, label %23

22:                                               ; preds = %19
  tail call void @ERR_new() #5
  tail call void @ERR_set_debug(ptr noundef nonnull @.str, i32 noundef 402, ptr noundef nonnull @__func__.pkcs12_setup_mac) #5
  tail call void (i32, i32, ptr, ...) @ERR_set_error(i32 noundef 35, i32 noundef 524301, ptr noundef null) #5
  br label %52

23:                                               ; preds = %19, %11
  %24 = icmp eq i32 %3, 0
  br i1 %24, label %27, label %25

25:                                               ; preds = %23
  %26 = icmp slt i32 %3, 0
  br i1 %26, label %52, label %27

27:                                               ; preds = %23, %25
  %.022 = phi i32 [ %3, %25 ], [ 8, %23 ]
  %28 = zext nneg i32 %.022 to i64
  %29 = tail call noalias ptr @CRYPTO_malloc(i64 noundef %28, ptr noundef nonnull @.str, i32 noundef 410) #5
  %30 = load ptr, ptr %7, align 8, !tbaa !3
  %31 = getelementptr inbounds nuw i8, ptr %30, i64 8
  %32 = load ptr, ptr %31, align 8, !tbaa !14
  %33 = getelementptr inbounds nuw i8, ptr %32, i64 8
  store ptr %29, ptr %33, align 8, !tbaa !35
  %34 = icmp eq ptr %29, null
  br i1 %34, label %52, label %35

35:                                               ; preds = %27
  store i32 %.022, ptr %32, align 8, !tbaa !37
  %36 = icmp eq ptr %2, null
  br i1 %36, label %37, label %44

37:                                               ; preds = %35
  %38 = getelementptr inbounds nuw i8, ptr %0, i64 16
  %39 = load ptr, ptr %38, align 8, !tbaa !26
  %40 = getelementptr inbounds nuw i8, ptr %39, i64 40
  %41 = load ptr, ptr %40, align 8, !tbaa !38
  %42 = tail call i32 @RAND_bytes_ex(ptr noundef %41, ptr noundef nonnull %29, i64 noundef %28, i32 noundef 0) #5
  %43 = icmp slt i32 %42, 1
  br i1 %43, label %52, label %._crit_edge

._crit_edge:                                      ; preds = %37
  %.pre = load ptr, ptr %7, align 8, !tbaa !3
  br label %45

44:                                               ; preds = %35
  tail call void @llvm.memcpy.p0.p0.i64(ptr nonnull align 1 %29, ptr nonnull align 1 %2, i64 %28, i1 false)
  br label %45

45:                                               ; preds = %._crit_edge, %44
  %46 = phi ptr [ %.pre, %._crit_edge ], [ %30, %44 ]
  %47 = load ptr, ptr %46, align 8, !tbaa !11
  call void @X509_SIG_getm(ptr noundef %47, ptr noundef nonnull %6, ptr noundef null) #5
  %48 = load ptr, ptr %6, align 8, !tbaa !17
  %49 = call ptr @OBJ_nid2obj(i32 noundef %4) #5
  %50 = call i32 @X509_ALGOR_set0(ptr noundef %48, ptr noundef %49, i32 noundef 5, ptr noundef null) #5
  %.not26 = icmp eq i32 %50, 0
  br i1 %.not26, label %51, label %52

51:                                               ; preds = %45
  call void @ERR_new() #5
  call void @ERR_set_debug(ptr noundef nonnull @.str, i32 noundef 422, ptr noundef nonnull @__func__.pkcs12_setup_mac) #5
  call void (i32, i32, ptr, ...) @ERR_set_error(i32 noundef 35, i32 noundef 524301, ptr noundef null) #5
  br label %52

52:                                               ; preds = %45, %37, %27, %25, %5, %51, %22, %18
  %.0 = phi i32 [ 0, %18 ], [ 0, %51 ], [ 0, %22 ], [ 0, %5 ], [ 0, %25 ], [ 0, %27 ], [ 0, %37 ], [ 1, %45 ]
  call void @llvm.lifetime.end.p0(i64 8, ptr nonnull %6) #5
  ret i32 %.0
}